; Function Attrs: nounwind sspstrong uwtable
define dso_local noundef zeroext i1 @cpu_exists(i64 noundef %0) local_unnamed_addr #0 {
  %2 = load atomic i64, ptr @cpus_queue monotonic, align 8
  tail call void asm sideeffect "", "~{memory},~{dirflag},~{fpsr},~{flags}"() #12, !srcloc !4
  %.not16.i = icmp eq i64 %2, 0
  br i1 %.not16.i, label %cpu_by_arch_id.exit, label %.lr.ph.i

.lr.ph.i:                                         ; preds = %1, %8
  %.01217.in.i = phi i64 [ %10, %8 ], [ %2, %1 ]
  %.01217.i = inttoptr i64 %.01217.in.i to ptr
  %3 = tail call ptr @object_get_class(ptr noundef nonnull %.01217.i) #12
  %4 = tail call ptr @object_class_dynamic_cast_assert(ptr noundef %3, ptr noundef nonnull @.str.3, ptr noundef nonnull @.str.4, i32 noundef 67, ptr noundef nonnull @__func__.CPU_GET_CLASS) #12
  %5 = getelementptr inbounds nuw i8, ptr %4, i64 240
  %6 = load ptr, ptr %5, align 8
  %7 = tail call i64 %6(ptr noundef nonnull %.01217.i) #12
  %.not14.i = icmp eq i64 %7, %0
  br i1 %.not14.i, label %cpu_by_arch_id.exit, label %8

8:                                                ; preds = %.lr.ph.i
  %9 = getelementptr inbounds nuw i8, ptr %.01217.i, i64 560
  %10 = load atomic i64, ptr %9 monotonic, align 16
  tail call void asm sideeffect "", "~{memory},~{dirflag},~{fpsr},~{flags}"() #12, !srcloc !5
  %.not.i = icmp eq i64 %10, 0
  br i1 %.not.i, label %cpu_by_arch_id.exit, label %.lr.ph.i, !llvm.loop !6

cpu_by_arch_id.exit:                              ; preds = %.lr.ph.i, %8, %1
  %.2.i = phi i1 [ false, %1 ], [ %.not14.i, %8 ], [ %.not14.i, %.lr.ph.i ]
  ret i1 %.2.i
}